(dp1
S'planetLinks'
p2
(dp3
sS'planteLocation'
p4
(dp5
sS'planetIm'
p6
(dp7
sS'name'
p8
S'default'
p9
sS'image'
p10
S''
sS'planetList'
p11
(lp12
S'firstCapital'
p13
aS'secondPlanet'
p14
aS'enemyPlanet'
p15
as.